target datalayout = "e-m:e-p270:32:32-p271:32:32-p272:64:64-i64:64-i128:128-f80:128-n8:16:32:64-S128"
target triple = "x86_64-pc-linux-gnu"

%struct._h223_mux_element = type { ptr, i16, i16, ptr }

; Function Attrs: nounwind uwtable
define internal i32 @dissect_mux_payload_by_me_list(ptr noundef %0, ptr noundef %1, i32 noundef %2, ptr noundef %3, ptr noundef %4, ptr noundef %5, i32 noundef %6, i32 noundef %7, i32 noundef %8, i32 noundef %9) #0 {
  %11 = alloca ptr, align 8
  %12 = alloca ptr, align 8
  %13 = alloca i32, align 4
  %14 = alloca ptr, align 8
  %15 = alloca ptr, align 8
  %16 = alloca ptr, align 8
  %17 = alloca i32, align 4
  %18 = alloca i32, align 4
  %19 = alloca i32, align 4
  %20 = alloca i32, align 4
  %21 = alloca i32, align 4
  %22 = alloca i32, align 4
  %23 = alloca i32, align 4
  %24 = alloca i32, align 4
  %25 = alloca ptr, align 8
  store ptr %0, ptr %11, align 8
  store ptr %1, ptr %12, align 8
  store i32 %2, ptr %13, align 4
  store ptr %3, ptr %14, align 8
  store ptr %4, ptr %15, align 8
  store ptr %5, ptr %16, align 8
  store i32 %6, ptr %17, align 4
  store i32 %7, ptr %18, align 4
  store i32 %8, ptr %19, align 4
  store i32 %9, ptr %20, align 4
  %26 = load ptr, ptr %11, align 8
  %27 = call i32 @tvb_reported_length(ptr noundef %26)
  store i32 %27, ptr %21, align 4
  %28 = load ptr, ptr %12, align 8
  call void @increment_dissection_depth(ptr noundef %28)
  br label %29

29:                                               ; preds = %148, %10
  %30 = load ptr, ptr %16, align 8
  %31 = icmp ne ptr %30, null
  br i1 %31, label %32, label %152

32:                                               ; preds = %29
  %33 = load ptr, ptr %16, align 8
  %34 = getelementptr inbounds %struct._h223_mux_element, ptr %33, i32 0, i32 0
  %35 = load ptr, ptr %34, align 8
  %36 = icmp ne ptr %35, null
  br i1 %36, label %37, label %98

37:                                               ; preds = %32
  %38 = load ptr, ptr %16, align 8
  %39 = getelementptr inbounds %struct._h223_mux_element, ptr %38, i32 0, i32 2
  %40 = load i16, ptr %39, align 2
  %41 = zext i16 %40 to i32
  %42 = icmp eq i32 %41, 0
  br i1 %42, label %43, label %71

43:                                               ; preds = %37
  %44 = load ptr, ptr %12, align 8
  %45 = load ptr, ptr %16, align 8
  %46 = getelementptr inbounds %struct._h223_mux_element, ptr %45, i32 0, i32 0
  %47 = load ptr, ptr %46, align 8
  %48 = call i32 @mux_element_sublist_size(ptr noundef %44, ptr noundef %47)
  store i32 %48, ptr %23, align 4
  br label %49

49:                                               ; preds = %56, %43
  %50 = load i32, ptr %17, align 4
  %51 = load i32, ptr %23, align 4
  %52 = add i32 %50, %51
  %53 = load i32, ptr %21, align 4
  %54 = icmp ule i32 %52, %53
  br i1 %54, label %55, label %70

55:                                               ; preds = %49
  br label %56

56:                                               ; preds = %55
  %57 = load ptr, ptr %11, align 8
  %58 = load ptr, ptr %12, align 8
  %59 = load i32, ptr %13, align 4
  %60 = load ptr, ptr %14, align 8
  %61 = load ptr, ptr %15, align 8
  %62 = load ptr, ptr %16, align 8
  %63 = getelementptr inbounds %struct._h223_mux_element, ptr %62, i32 0, i32 0
  %64 = load ptr, ptr %63, align 8
  %65 = load i32, ptr %17, align 4
  %66 = load i32, ptr %18, align 4
  %67 = load i32, ptr %19, align 4
  %68 = load i32, ptr %20, align 4
  %69 = call i32 @dissect_mux_payload_by_me_list(ptr noundef %57, ptr noundef %58, i32 noundef %59, ptr noundef %60, ptr noundef %61, ptr noundef %64, i32 noundef %65, i32 noundef %66, i32 noundef %67, i32 noundef %68)
  store i32 %69, ptr %17, align 4
  br label %49, !llvm.loop !12

70:                                               ; preds = %49
  br label %97

71:                                               ; preds = %37
  store i32 0, ptr %24, align 4
  br label %72

72:                                               ; preds = %93, %71
  %73 = load i32, ptr %24, align 4
  %74 = load ptr, ptr %16, align 8
  %75 = getelementptr inbounds %struct._h223_mux_element, ptr %74, i32 0, i32 2
  %76 = load i16, ptr %75, align 2
  %77 = zext i16 %76 to i32
  %78 = icmp slt i32 %73, %77
  br i1 %78, label %79, label %96

79:                                               ; preds = %72
  %80 = load ptr, ptr %11, align 8
  %81 = load ptr, ptr %12, align 8
  %82 = load i32, ptr %13, align 4
  %83 = load ptr, ptr %14, align 8
  %84 = load ptr, ptr %15, align 8
  %85 = load ptr, ptr %16, align 8
  %86 = getelementptr inbounds %struct._h223_mux_element, ptr %85, i32 0, i32 0
  %87 = load ptr, ptr %86, align 8
  %88 = load i32, ptr %17, align 4
  %89 = load i32, ptr %18, align 4
  %90 = load i32, ptr %19, align 4
  %91 = load i32, ptr %20, align 4
  %92 = call i32 @dissect_mux_payload_by_me_list(ptr noundef %80, ptr noundef %81, i32 noundef %82, ptr noundef %83, ptr noundef %84, ptr noundef %87, i32 noundef %88, i32 noundef %89, i32 noundef %90, i32 noundef %91)
  store i32 %92, ptr %17, align 4
  br label %93

93:                                               ; preds = %79
  %94 = load i32, ptr %24, align 4
  %95 = add i32 %94, 1
  store i32 %95, ptr %24, align 4
  br label %72, !llvm.loop !13

96:                                               ; preds = %72
  br label %97

97:                                               ; preds = %96, %70
  br label %148

98:                                               ; preds = %32
  %99 = load ptr, ptr %16, align 8
  %100 = getelementptr inbounds %struct._h223_mux_element, ptr %99, i32 0, i32 2
  %101 = load i16, ptr %100, align 2
  %102 = zext i16 %101 to i32
  %103 = icmp eq i32 %102, 0
  br i1 %103, label %104, label %108

104:                                              ; preds = %98
  %105 = load i32, ptr %21, align 4
  %106 = load i32, ptr %17, align 4
  %107 = sub i32 %105, %106
  store i32 %107, ptr %22, align 4
  br label %113

108:                                              ; preds = %98
  %109 = load ptr, ptr %16, align 8
  %110 = getelementptr inbounds %struct._h223_mux_element, ptr %109, i32 0, i32 2
  %111 = load i16, ptr %110, align 2
  %112 = zext i16 %111 to i32
  store i32 %112, ptr %22, align 4
  br label %113

113:                                              ; preds = %108, %104
  %114 = load i32, ptr %22, align 4
  %115 = icmp ugt i32 %114, 0
  br i1 %115, label %116, label %147

116:                                              ; preds = %113
  %117 = load ptr, ptr %11, align 8
  %118 = load i32, ptr %17, align 4
  %119 = load i32, ptr %22, align 4
  %120 = call ptr @tvb_new_subset_length(ptr noundef %117, i32 noundef %118, i32 noundef %119)
  store ptr %120, ptr %25, align 8
  %121 = load ptr, ptr %25, align 8
  %122 = load ptr, ptr %12, align 8
  %123 = load i32, ptr %13, align 4
  %124 = load i32, ptr %17, align 4
  %125 = add i32 %123, %124
  %126 = load ptr, ptr %14, align 8
  %127 = load ptr, ptr %15, align 8
  %128 = load ptr, ptr %16, align 8
  %129 = getelementptr inbounds %struct._h223_mux_element, ptr %128, i32 0, i32 1
  %130 = load i16, ptr %129, align 8
  %131 = load i32, ptr %17, align 4
  %132 = load i32, ptr %22, align 4
  %133 = add i32 %131, %132
  %134 = load i32, ptr %21, align 4
  %135 = icmp eq i32 %133, %134
  br i1 %135, label %136, label %139

136:                                              ; preds = %116
  %137 = load i32, ptr %18, align 4
  %138 = icmp ne i32 %137, 0
  br label %139

139:                                              ; preds = %136, %116
  %140 = phi i1 [ false, %116 ], [ %138, %136 ]
  %141 = zext i1 %140 to i32
  %142 = load i32, ptr %19, align 4
  %143 = load i32, ptr %20, align 4
  call void @dissect_mux_sdu_fragment(ptr noundef %121, ptr noundef %122, i32 noundef %125, ptr noundef %126, ptr noundef %127, i16 noundef zeroext %130, i32 noundef %141, i32 noundef %142, i32 noundef %143)
  %144 = load i32, ptr %22, align 4
  %145 = load i32, ptr %17, align 4
  %146 = add i32 %145, %144
  store i32 %146, ptr %17, align 4
  br label %147

147:                                              ; preds = %139, %113
  br label %148

148:                                              ; preds = %147, %97
  %149 = load ptr, ptr %16, align 8
  %150 = getelementptr inbounds %struct._h223_mux_element, ptr %149, i32 0, i32 3
  %151 = load ptr, ptr %150, align 8
  store ptr %151, ptr %16, align 8
  br label %29, !llvm.loop !14

152:                                              ; preds = %29
  %153 = load ptr, ptr %12, align 8
  call void @decrement_dissection_depth(ptr noundef %153)
  %154 = load i32, ptr %17, align 4
  ret i32 %154
}