; Function Attrs: nounwind uwtable
define internal fastcc i32 @dissect_mux_payload_by_me_list(ptr noundef %0, ptr noundef %1, i32 noundef %2, ptr noundef %3, ptr noundef %4, ptr noundef readonly %5, i32 noundef %6, i32 noundef range(i32 0, 2) %7, i32 noundef %8, i32 noundef %9) unnamed_addr #0 {
  %11 = tail call i32 @tvb_reported_length(ptr noundef %0) #12
  tail call void @increment_dissection_depth(ptr noundef %1) #12
  %.not73 = icmp eq ptr %5, null
  br i1 %.not73, label %._crit_edge, label %.lr.ph76

.lr.ph76:                                         ; preds = %10
  %12 = icmp ne i32 %7, 0
  br label %13

13:                                               ; preds = %.lr.ph76, %.loopexit
  %.075 = phi ptr [ %5, %.lr.ph76 ], [ %44, %.loopexit ]
  %.05974 = phi i32 [ %6, %.lr.ph76 ], [ %.3, %.loopexit ]
  %14 = load ptr, ptr %.075, align 8
  %.not63 = icmp eq ptr %14, null
  %15 = getelementptr inbounds nuw i8, ptr %.075, i64 10
  %16 = load i16, ptr %15, align 2
  %17 = icmp eq i16 %16, 0
  br i1 %.not63, label %31, label %18

18:                                               ; preds = %13
  br i1 %17, label %19, label %.lr.ph

19:                                               ; preds = %18
  %20 = tail call fastcc i32 @mux_element_sublist_size(ptr noundef %1, ptr noundef %14)
  %21 = add i32 %.05974, %20
  %.not6569 = icmp ugt i32 %21, %11
  br i1 %.not6569, label %.loopexit, label %.lr.ph71

.lr.ph71:                                         ; preds = %19, %.lr.ph71
  %.170 = phi i32 [ %23, %.lr.ph71 ], [ %.05974, %19 ]
  %22 = load ptr, ptr %.075, align 8
  %23 = tail call fastcc i32 @dissect_mux_payload_by_me_list(ptr noundef %0, ptr noundef %1, i32 noundef %2, ptr noundef %3, ptr noundef %4, ptr noundef %22, i32 noundef %.170, i32 noundef %7, i32 noundef %8, i32 noundef %9)
  %24 = add i32 %23, %20
  %.not65 = icmp ugt i32 %24, %11
  br i1 %.not65, label %.loopexit, label %.lr.ph71, !llvm.loop !11

.lr.ph:                                           ; preds = %18, %.lr.ph
  %.05868 = phi i32 [ %27, %.lr.ph ], [ 0, %18 ]
  %.267 = phi i32 [ %26, %.lr.ph ], [ %.05974, %18 ]
  %25 = load ptr, ptr %.075, align 8
  %26 = tail call fastcc i32 @dissect_mux_payload_by_me_list(ptr noundef %0, ptr noundef %1, i32 noundef %2, ptr noundef %3, ptr noundef %4, ptr noundef %25, i32 noundef %.267, i32 noundef %7, i32 noundef %8, i32 noundef %9)
  %27 = add nuw nsw i32 %.05868, 1
  %28 = load i16, ptr %15, align 2
  %29 = zext i16 %28 to i32
  %30 = icmp samesign ult i32 %27, %29
  br i1 %30, label %.lr.ph, label %.loopexit, !llvm.loop !12

31:                                               ; preds = %13
  %32 = sub i32 %11, %.05974
  %33 = zext i16 %16 to i32
  %.060 = select i1 %17, i32 %32, i32 %33
  %.not64 = icmp eq i32 %.060, 0
  br i1 %.not64, label %.loopexit, label %34

34:                                               ; preds = %31
  %35 = tail call ptr @tvb_new_subset_length(ptr noundef %0, i32 noundef %.05974, i32 noundef %.060) #12
  %36 = add i32 %.05974, %2
  %37 = getelementptr inbounds nuw i8, ptr %.075, i64 8
  %38 = load i16, ptr %37, align 8
  %39 = add i32 %.060, %.05974
  %40 = icmp eq i32 %39, %11
  %41 = and i1 %12, %40
  %42 = zext i1 %41 to i32
  tail call fastcc void @dissect_mux_sdu_fragment(ptr noundef %35, ptr noundef %1, i32 noundef %36, ptr noundef %3, ptr noundef %4, i16 noundef zeroext %38, i32 noundef %42, i32 noundef %8, i32 noundef %9)
  br label %.loopexit

.loopexit:                                        ; preds = %.lr.ph, %.lr.ph71, %19, %31, %34
  %.3 = phi i32 [ %39, %34 ], [ %.05974, %31 ], [ %.05974, %19 ], [ %23, %.lr.ph71 ], [ %26, %.lr.ph ]
  %43 = getelementptr inbounds nuw i8, ptr %.075, i64 16
  %44 = load ptr, ptr %43, align 8
  %.not = icmp eq ptr %44, null
  br i1 %.not, label %._crit_edge, label %13, !llvm.loop !13

._crit_edge:                                      ; preds = %.loopexit, %10
  %.059.lcssa = phi i32 [ %6, %10 ], [ %.3, %.loopexit ]
  tail call void @decrement_dissection_depth(ptr noundef %1) #12
  ret i32 %.059.lcssa
}